; Function Attrs: mustprogress uwtable
define void @_ZN5boost6detail24add_thread_exit_functionEPNS0_25thread_exit_function_baseE(ptr noundef %0) local_unnamed_addr #9 personality ptr @__gxx_personality_v0 {
  %2 = tail call noundef zeroext i1 @_ZN5boost13thread_detail17enter_once_regionERNS_9once_flagE(ptr noundef nonnull align 4 dereferenceable(4) @_ZN5boost6detail12_GLOBAL__N_128current_thread_tls_init_flagE) #32
  br i1 %2, label %_ZN5boost6detail6invokeIPFvvEJEEEDTclclsr5boostE7forwardIT_Efp_Espclsr5boostE7forwardIT0_Efp0_EEEOS4_DpOS5_.exit.i.i.i, label %_ZN5boost6detail23get_current_thread_dataEv.exit.i

_ZN5boost6detail6invokeIPFvvEJEEEDTclclsr5boostE7forwardIT_Efp_Espclsr5boostE7forwardIT0_Efp0_EEEOS4_DpOS5_.exit.i.i.i: ; preds = %1
  %3 = tail call i32 @pthread_key_create(ptr noundef nonnull @_ZN5boost6detail12_GLOBAL__N_122current_thread_tls_keyE, ptr noundef nonnull @_ZN5boost6detail12_GLOBAL__N_114tls_destructorEPv) #32
  tail call void @_ZN5boost13thread_detail18commit_once_regionERNS_9once_flagE(ptr noundef nonnull align 4 dereferenceable(4) @_ZN5boost6detail12_GLOBAL__N_128current_thread_tls_init_flagE) #32
  br label %_ZN5boost6detail23get_current_thread_dataEv.exit.i

_ZN5boost6detail23get_current_thread_dataEv.exit.i: ; preds = %_ZN5boost6detail6invokeIPFvvEJEEEDTclclsr5boostE7forwardIT_Efp_Espclsr5boostE7forwardIT0_Efp0_EEEOS4_DpOS5_.exit.i.i.i, %1
  %4 = load i32, ptr @_ZN5boost6detail12_GLOBAL__N_122current_thread_tls_keyE, align 4, !tbaa !54
  %5 = tail call noundef ptr @pthread_getspecific(i32 noundef %4) #32
  %.not.i = icmp eq ptr %5, null
  br i1 %.not.i, label %6, label %_ZN5boost6detail31get_or_make_current_thread_dataEv.exit

6:                                                ; preds = %_ZN5boost6detail23get_current_thread_dataEv.exit.i
  %7 = tail call noundef ptr @_ZN5boost6detail25make_external_thread_dataEv()
  br label %_ZN5boost6detail31get_or_make_current_thread_dataEv.exit

_ZN5boost6detail31get_or_make_current_thread_dataEv.exit: ; preds = %_ZN5boost6detail23get_current_thread_dataEv.exit.i, %6
  %.0.i = phi ptr [ %5, %_ZN5boost6detail23get_current_thread_dataEv.exit.i ], [ %7, %6 ]
  %8 = getelementptr inbounds nuw i8, ptr %.0.i, i64 184
  %9 = tail call noalias noundef nonnull dereferenceable(16) ptr @_Znwm(i64 noundef 16) #36
  %10 = load ptr, ptr %8, align 8, !tbaa !19
  store ptr %0, ptr %9, align 8, !tbaa !157
  %11 = getelementptr inbounds nuw i8, ptr %9, i64 8
  store ptr %10, ptr %11, align 8, !tbaa !159
  store ptr %9, ptr %8, align 8, !tbaa !160
  ret void
}